; ModuleID = '12/862.c'
source_filename = "12/862.c"
target datalayout = "e-m:e-p270:32:32-p271:32:32-p272:64:64-i64:64-f80:128-n8:16:32:64-S128"
target triple = "x86_64-pc-linux-gnu"

@.str = private unnamed_addr constant [3 x i8] c"%d\00", align 1
@.str.1 = private unnamed_addr constant [4 x i8] c"%d\0A\00", align 1

; Function Attrs: noinline nounwind uwtable
define dso_local void @main() #0 {
  %1 = alloca [100 x [16 x i32]], align 16
  %2 = alloca i32, align 4
  %3 = alloca i32, align 4
  %4 = alloca i32, align 4
  %5 = alloca i32, align 4
  %6 = alloca i32, align 4
  %7 = alloca i32, align 4
  %8 = alloca i32, align 4
  %9 = alloca i32, align 4
  %10 = alloca i32, align 4
  %11 = alloca i32, align 4
  %12 = alloca [100 x i32], align 16
  store i32 1, i32* %3, align 4
  br label %13

13:                                               ; preds = %66, %0
  %14 = load i32, i32* %3, align 4
  %15 = icmp sle i32 %14, 100
  br i1 %15, label %16, label %69

16:                                               ; preds = %13
  store i32 1, i32* %2, align 4
  br label %17

17:                                               ; preds = %52, %16
  %18 = load i32, i32* %2, align 4
  %19 = icmp sle i32 %18, 16
  br i1 %19, label %20, label %55

20:                                               ; preds = %17
  %21 = load i32, i32* %3, align 4
  %22 = sext i32 %21 to i64
  %23 = getelementptr inbounds [100 x [16 x i32]], [100 x [16 x i32]]* %1, i64 0, i64 %22
  %24 = load i32, i32* %2, align 4
  %25 = sext i32 %24 to i64
  %26 = getelementptr inbounds [16 x i32], [16 x i32]* %23, i64 0, i64 %25
  %27 = call i32 (i8*, ...) @__isoc99_scanf(i8* getelementptr inbounds ([3 x i8], [3 x i8]* @.str, i64 0, i64 0), i32* %26)
  %28 = load i32, i32* %3, align 4
  %29 = sext i32 %28 to i64
  %30 = getelementptr inbounds [100 x [16 x i32]], [100 x [16 x i32]]* %1, i64 0, i64 %29
  %31 = load i32, i32* %2, align 4
  %32 = sext i32 %31 to i64
  %33 = getelementptr inbounds [16 x i32], [16 x i32]* %30, i64 0, i64 %32
  %34 = load i32, i32* %33, align 4
  %35 = icmp eq i32 %34, 0
  br i1 %35, label %45, label %36

36:                                               ; preds = %20
  %37 = load i32, i32* %3, align 4
  %38 = sext i32 %37 to i64
  %39 = getelementptr inbounds [100 x [16 x i32]], [100 x [16 x i32]]* %1, i64 0, i64 %38
  %40 = load i32, i32* %2, align 4
  %41 = sext i32 %40 to i64
  %42 = getelementptr inbounds [16 x i32], [16 x i32]* %39, i64 0, i64 %41
  %43 = load i32, i32* %42, align 4
  %44 = icmp eq i32 %43, -1
  br i1 %44, label %45, label %51

45:                                               ; preds = %36, %20
  %46 = load i32, i32* %2, align 4
  %47 = sub nsw i32 %46, 1
  %48 = load i32, i32* %3, align 4
  %49 = sext i32 %48 to i64
  %50 = getelementptr inbounds [100 x i32], [100 x i32]* %12, i64 0, i64 %49
  store i32 %47, i32* %50, align 4
  br label %55

51:                                               ; preds = %36
  br label %52

52:                                               ; preds = %51
  %53 = load i32, i32* %2, align 4
  %54 = add nsw i32 %53, 1
  store i32 %54, i32* %2, align 4
  br label %17

55:                                               ; preds = %45, %17
  %56 = load i32, i32* %3, align 4
  %57 = sext i32 %56 to i64
  %58 = getelementptr inbounds [100 x [16 x i32]], [100 x [16 x i32]]* %1, i64 0, i64 %57
  %59 = load i32, i32* %2, align 4
  %60 = sext i32 %59 to i64
  %61 = getelementptr inbounds [16 x i32], [16 x i32]* %58, i64 0, i64 %60
  %62 = load i32, i32* %61, align 4
  %63 = icmp eq i32 %62, -1
  br i1 %63, label %64, label %65

64:                                               ; preds = %55
  br label %69

65:                                               ; preds = %55
  br label %66

66:                                               ; preds = %65
  %67 = load i32, i32* %3, align 4
  %68 = add nsw i32 %67, 1
  store i32 %68, i32* %3, align 4
  br label %13

69:                                               ; preds = %64, %13
  store i32 1, i32* %6, align 4
  br label %70

70:                                               ; preds = %140, %69
  %71 = load i32, i32* %6, align 4
  %72 = load i32, i32* %3, align 4
  %73 = icmp slt i32 %71, %72
  br i1 %73, label %74, label %143

74:                                               ; preds = %70
  store i32 0, i32* %11, align 4
  store i32 1, i32* %9, align 4
  br label %75

75:                                               ; preds = %134, %74
  %76 = load i32, i32* %9, align 4
  %77 = load i32, i32* %6, align 4
  %78 = sext i32 %77 to i64
  %79 = getelementptr inbounds [100 x i32], [100 x i32]* %12, i64 0, i64 %78
  %80 = load i32, i32* %79, align 4
  %81 = icmp sle i32 %76, %80
  br i1 %81, label %82, label %137

82:                                               ; preds = %75
  %83 = load i32, i32* %9, align 4
  %84 = add nsw i32 %83, 1
  store i32 %84, i32* %10, align 4
  br label %85

85:                                               ; preds = %130, %82
  %86 = load i32, i32* %10, align 4
  %87 = load i32, i32* %6, align 4
  %88 = sext i32 %87 to i64
  %89 = getelementptr inbounds [100 x i32], [100 x i32]* %12, i64 0, i64 %88
  %90 = load i32, i32* %89, align 4
  %91 = icmp sle i32 %86, %90
  br i1 %91, label %92, label %133

92:                                               ; preds = %85
  %93 = load i32, i32* %6, align 4
  %94 = sext i32 %93 to i64
  %95 = getelementptr inbounds [100 x [16 x i32]], [100 x [16 x i32]]* %1, i64 0, i64 %94
  %96 = load i32, i32* %10, align 4
  %97 = sext i32 %96 to i64
  %98 = getelementptr inbounds [16 x i32], [16 x i32]* %95, i64 0, i64 %97
  %99 = load i32, i32* %98, align 4
  %100 = load i32, i32* %6, align 4
  %101 = sext i32 %100 to i64
  %102 = getelementptr inbounds [100 x [16 x i32]], [100 x [16 x i32]]* %1, i64 0, i64 %101
  %103 = load i32, i32* %9, align 4
  %104 = sext i32 %103 to i64
  %105 = getelementptr inbounds [16 x i32], [16 x i32]* %102, i64 0, i64 %104
  %106 = load i32, i32* %105, align 4
  %107 = mul nsw i32 2, %106
  %108 = icmp eq i32 %99, %107
  br i1 %108, label %126, label %109

109:                                              ; preds = %92
  %110 = load i32, i32* %6, align 4
  %111 = sext i32 %110 to i64
  %112 = getelementptr inbounds [100 x [16 x i32]], [100 x [16 x i32]]* %1, i64 0, i64 %111
  %113 = load i32, i32* %10, align 4
  %114 = sext i32 %113 to i64
  %115 = getelementptr inbounds [16 x i32], [16 x i32]* %112, i64 0, i64 %114
  %116 = load i32, i32* %115, align 4
  %117 = mul nsw i32 2, %116
  %118 = load i32, i32* %6, align 4
  %119 = sext i32 %118 to i64
  %120 = getelementptr inbounds [100 x [16 x i32]], [100 x [16 x i32]]* %1, i64 0, i64 %119
  %121 = load i32, i32* %9, align 4
  %122 = sext i32 %121 to i64
  %123 = getelementptr inbounds [16 x i32], [16 x i32]* %120, i64 0, i64 %122
  %124 = load i32, i32* %123, align 4
  %125 = icmp eq i32 %117, %124
  br i1 %125, label %126, label %129

126:                                              ; preds = %109, %92
  %127 = load i32, i32* %11, align 4
  %128 = add nsw i32 %127, 1
  store i32 %128, i32* %11, align 4
  br label %129

129:                                              ; preds = %126, %109
  br label %130

130:                                              ; preds = %129
  %131 = load i32, i32* %10, align 4
  %132 = add nsw i32 %131, 1
  store i32 %132, i32* %10, align 4
  br label %85

133:                                              ; preds = %85
  br label %134

134:                                              ; preds = %133
  %135 = load i32, i32* %9, align 4
  %136 = add nsw i32 %135, 1
  store i32 %136, i32* %9, align 4
  br label %75

137:                                              ; preds = %75
  %138 = load i32, i32* %11, align 4
  %139 = call i32 (i8*, ...) @printf(i8* getelementptr inbounds ([4 x i8], [4 x i8]* @.str.1, i64 0, i64 0), i32 %138)
  br label %140

140:                                              ; preds = %137
  %141 = load i32, i32* %6, align 4
  %142 = add nsw i32 %141, 1
  store i32 %142, i32* %6, align 4
  br label %70

143:                                              ; preds = %70
  ret void
}

declare dso_local i32 @__isoc99_scanf(i8*, ...) #1

declare dso_local i32 @printf(i8*, ...) #1


!llvm.module.flags = !{!0}
!llvm.ident = !{!1}

!0 = !{i32 1, !"wchar_size", i32 4}
!1 = !{!"clang version 10.0.0-4ubuntu1 "}
